; Function Attrs: uwtable
define range(i32 -4, 1) i32 @faiss_IndexShards_remove_shard(ptr noundef nonnull %0, ptr noundef %1) local_unnamed_addr #6 personality ptr @__gxx_personality_v0 {
  %3 = alloca %"class.std::__exception_ptr::exception_ptr", align 8
  %4 = alloca %"class.std::__exception_ptr::exception_ptr", align 8
  %5 = alloca %"class.std::__exception_ptr::exception_ptr", align 8
  %6 = alloca %"class.std::__exception_ptr::exception_ptr", align 8
  %7 = alloca %"class.std::runtime_error", align 8
  %8 = alloca %"class.std::__exception_ptr::exception_ptr", align 8
  %9 = alloca %"class.std::exception", align 8
  %10 = alloca %"class.std::__exception_ptr::exception_ptr", align 8
  %11 = alloca %"class.faiss::FaissException", align 8
  invoke void @_ZN5faiss13ThreadedIndexINS_5IndexEE11removeIndexEPS1_(ptr noundef nonnull align 8 dereferenceable(66) %0, ptr noundef %1)
          to label %_ZN5faiss19IndexShardsTemplateINS_5IndexEE12remove_shardEPS1_.exit unwind label %12

12:                                               ; preds = %2
  %13 = landingpad { ptr, i32 }
          catch ptr @_ZTIN5faiss14FaissExceptionE
          catch ptr @_ZTISt9exception
          catch ptr null
  %14 = extractvalue { ptr, i32 } %13, 0
  %15 = extractvalue { ptr, i32 } %13, 1
  %16 = tail call i32 @llvm.eh.typeid.for.p0(ptr nonnull @_ZTIN5faiss14FaissExceptionE) #26
  %17 = icmp eq i32 %15, %16
  br i1 %17, label %18, label %26

18:                                               ; preds = %12
  %19 = tail call ptr @__cxa_begin_catch(ptr %14) #26
  call void @llvm.lifetime.start.p0(i64 8, ptr nonnull %10) #26
  invoke void @_ZN5faiss14FaissExceptionC2ERKS0_(ptr noundef nonnull align 8 dereferenceable(40) %11, ptr noundef nonnull align 8 dereferenceable(40) %19)
          to label %20 unwind label %45

20:                                               ; preds = %18
  call void @_ZSt18make_exception_ptrIN5faiss14FaissExceptionEENSt15__exception_ptr13exception_ptrET_(ptr dead_on_unwind nonnull writable sret(%"class.std::__exception_ptr::exception_ptr") align 8 %10, ptr noundef nonnull %11) #26
  %.not.i = icmp eq ptr @_ZTH20faiss_last_exception, null
  br i1 %.not.i, label %_ZTW20faiss_last_exception.exit, label %21

21:                                               ; preds = %20
  call void @_ZTH20faiss_last_exception()
  br label %_ZTW20faiss_last_exception.exit

_ZTW20faiss_last_exception.exit:                  ; preds = %20, %21
  %22 = call noundef align 8 ptr @llvm.threadlocal.address.p0(ptr align 8 @faiss_last_exception)
  call void @llvm.lifetime.start.p0(i64 8, ptr nonnull %5) #26
  %23 = load ptr, ptr %10, align 8, !tbaa !27
  store ptr null, ptr %10, align 8, !tbaa !27
  %24 = load ptr, ptr %22, align 8, !tbaa !27
  store ptr %24, ptr %5, align 8, !tbaa !27
  store ptr %23, ptr %22, align 8, !tbaa !27
  %.not.i.i = icmp eq ptr %24, null
  br i1 %.not.i.i, label %_ZNSt15__exception_ptr13exception_ptraSEOS0_.exit.thread, label %_ZNSt15__exception_ptr13exception_ptraSEOS0_.exit

_ZNSt15__exception_ptr13exception_ptraSEOS0_.exit.thread: ; preds = %_ZTW20faiss_last_exception.exit
  call void @llvm.lifetime.end.p0(i64 8, ptr nonnull %5) #26
  br label %_ZNSt15__exception_ptr13exception_ptrD2Ev.exit

_ZNSt15__exception_ptr13exception_ptraSEOS0_.exit: ; preds = %_ZTW20faiss_last_exception.exit
  call void @_ZNSt15__exception_ptr13exception_ptr10_M_releaseEv(ptr noundef nonnull align 8 dereferenceable(8) %5) #26
  %.pr = load ptr, ptr %10, align 8, !tbaa !27
  call void @llvm.lifetime.end.p0(i64 8, ptr nonnull %5) #26
  %.not.i14 = icmp eq ptr %.pr, null
  br i1 %.not.i14, label %_ZNSt15__exception_ptr13exception_ptrD2Ev.exit, label %25

25:                                               ; preds = %_ZNSt15__exception_ptr13exception_ptraSEOS0_.exit
  call void @_ZNSt15__exception_ptr13exception_ptr10_M_releaseEv(ptr noundef nonnull align 8 dereferenceable(8) %10) #26
  br label %_ZNSt15__exception_ptr13exception_ptrD2Ev.exit

_ZNSt15__exception_ptr13exception_ptrD2Ev.exit:   ; preds = %_ZNSt15__exception_ptr13exception_ptraSEOS0_.exit.thread, %_ZNSt15__exception_ptr13exception_ptraSEOS0_.exit, %25
  call void @_ZN5faiss14FaissExceptionD2Ev(ptr noundef nonnull align 8 dereferenceable(40) %11) #26
  call void @llvm.lifetime.end.p0(i64 8, ptr nonnull %10) #26
  br label %_ZN5faiss19IndexShardsTemplateINS_5IndexEE12remove_shardEPS1_.exit.sink.split

26:                                               ; preds = %12
  %27 = tail call i32 @llvm.eh.typeid.for.p0(ptr nonnull @_ZTISt9exception) #26
  %28 = icmp eq i32 %15, %27
  %29 = tail call ptr @__cxa_begin_catch(ptr %14) #26
  br i1 %28, label %30, label %36

30:                                               ; preds = %26
  call void @llvm.lifetime.start.p0(i64 8, ptr nonnull %8) #26
  store ptr getelementptr inbounds nuw inrange(-16, 24) (i8, ptr @_ZTVSt9exception, i64 16), ptr %9, align 8, !tbaa !3
  call void @_ZSt18make_exception_ptrISt9exceptionENSt15__exception_ptr13exception_ptrET_(ptr dead_on_unwind nonnull writable sret(%"class.std::__exception_ptr::exception_ptr") align 8 %8, ptr noundef nonnull %9) #26
  %.not.i15 = icmp eq ptr @_ZTH20faiss_last_exception, null
  br i1 %.not.i15, label %_ZTW20faiss_last_exception.exit16, label %31

31:                                               ; preds = %30
  call void @_ZTH20faiss_last_exception()
  br label %_ZTW20faiss_last_exception.exit16

_ZTW20faiss_last_exception.exit16:                ; preds = %30, %31
  %32 = call noundef align 8 ptr @llvm.threadlocal.address.p0(ptr align 8 @faiss_last_exception)
  call void @llvm.lifetime.start.p0(i64 8, ptr nonnull %4) #26
  %33 = load ptr, ptr %8, align 8, !tbaa !27
  store ptr null, ptr %8, align 8, !tbaa !27
  %34 = load ptr, ptr %32, align 8, !tbaa !27
  store ptr %34, ptr %4, align 8, !tbaa !27
  store ptr %33, ptr %32, align 8, !tbaa !27
  %.not.i.i17 = icmp eq ptr %34, null
  br i1 %.not.i.i17, label %_ZNSt15__exception_ptr13exception_ptraSEOS0_.exit18.thread, label %_ZNSt15__exception_ptr13exception_ptraSEOS0_.exit18

_ZNSt15__exception_ptr13exception_ptraSEOS0_.exit18.thread: ; preds = %_ZTW20faiss_last_exception.exit16
  call void @llvm.lifetime.end.p0(i64 8, ptr nonnull %4) #26
  br label %_ZNSt15__exception_ptr13exception_ptrD2Ev.exit20

_ZNSt15__exception_ptr13exception_ptraSEOS0_.exit18: ; preds = %_ZTW20faiss_last_exception.exit16
  call void @_ZNSt15__exception_ptr13exception_ptr10_M_releaseEv(ptr noundef nonnull align 8 dereferenceable(8) %4) #26
  %.pr28 = load ptr, ptr %8, align 8, !tbaa !27
  call void @llvm.lifetime.end.p0(i64 8, ptr nonnull %4) #26
  %.not.i19 = icmp eq ptr %.pr28, null
  br i1 %.not.i19, label %_ZNSt15__exception_ptr13exception_ptrD2Ev.exit20, label %35

35:                                               ; preds = %_ZNSt15__exception_ptr13exception_ptraSEOS0_.exit18
  call void @_ZNSt15__exception_ptr13exception_ptr10_M_releaseEv(ptr noundef nonnull align 8 dereferenceable(8) %8) #26
  br label %_ZNSt15__exception_ptr13exception_ptrD2Ev.exit20

_ZNSt15__exception_ptr13exception_ptrD2Ev.exit20: ; preds = %_ZNSt15__exception_ptr13exception_ptraSEOS0_.exit18.thread, %_ZNSt15__exception_ptr13exception_ptraSEOS0_.exit18, %35
  call void @_ZNSt9exceptionD1Ev(ptr noundef nonnull align 8 dereferenceable(8) %9) #26
  call void @llvm.lifetime.end.p0(i64 8, ptr nonnull %8) #26
  br label %_ZN5faiss19IndexShardsTemplateINS_5IndexEE12remove_shardEPS1_.exit.sink.split

36:                                               ; preds = %26
  call void @llvm.lifetime.start.p0(i64 8, ptr nonnull %6) #26
  invoke void @_ZNSt13runtime_errorC1EPKc(ptr noundef nonnull align 8 dereferenceable(16) %7, ptr noundef nonnull @.str)
          to label %37 unwind label %43

37:                                               ; preds = %36
  call void @_ZSt18make_exception_ptrISt13runtime_errorENSt15__exception_ptr13exception_ptrET_(ptr dead_on_unwind nonnull writable sret(%"class.std::__exception_ptr::exception_ptr") align 8 %6, ptr noundef nonnull %7) #26
  %.not.i21 = icmp eq ptr @_ZTH20faiss_last_exception, null
  br i1 %.not.i21, label %_ZTW20faiss_last_exception.exit22, label %38

38:                                               ; preds = %37
  call void @_ZTH20faiss_last_exception()
  br label %_ZTW20faiss_last_exception.exit22

_ZTW20faiss_last_exception.exit22:                ; preds = %37, %38
  %39 = call noundef align 8 ptr @llvm.threadlocal.address.p0(ptr align 8 @faiss_last_exception)
  call void @llvm.lifetime.start.p0(i64 8, ptr nonnull %3) #26
  %40 = load ptr, ptr %6, align 8, !tbaa !27
  store ptr null, ptr %6, align 8, !tbaa !27
  %41 = load ptr, ptr %39, align 8, !tbaa !27
  store ptr %41, ptr %3, align 8, !tbaa !27
  store ptr %40, ptr %39, align 8, !tbaa !27
  %.not.i.i23 = icmp eq ptr %41, null
  br i1 %.not.i.i23, label %_ZNSt15__exception_ptr13exception_ptraSEOS0_.exit24.thread, label %_ZNSt15__exception_ptr13exception_ptraSEOS0_.exit24

_ZNSt15__exception_ptr13exception_ptraSEOS0_.exit24.thread: ; preds = %_ZTW20faiss_last_exception.exit22
  call void @llvm.lifetime.end.p0(i64 8, ptr nonnull %3) #26
  br label %_ZNSt15__exception_ptr13exception_ptrD2Ev.exit26

_ZNSt15__exception_ptr13exception_ptraSEOS0_.exit24: ; preds = %_ZTW20faiss_last_exception.exit22
  call void @_ZNSt15__exception_ptr13exception_ptr10_M_releaseEv(ptr noundef nonnull align 8 dereferenceable(8) %3) #26
  %.pr30 = load ptr, ptr %6, align 8, !tbaa !27
  call void @llvm.lifetime.end.p0(i64 8, ptr nonnull %3) #26
  %.not.i25 = icmp eq ptr %.pr30, null
  br i1 %.not.i25, label %_ZNSt15__exception_ptr13exception_ptrD2Ev.exit26, label %42

42:                                               ; preds = %_ZNSt15__exception_ptr13exception_ptraSEOS0_.exit24
  call void @_ZNSt15__exception_ptr13exception_ptr10_M_releaseEv(ptr noundef nonnull align 8 dereferenceable(8) %6) #26
  br label %_ZNSt15__exception_ptr13exception_ptrD2Ev.exit26

_ZNSt15__exception_ptr13exception_ptrD2Ev.exit26: ; preds = %_ZNSt15__exception_ptr13exception_ptraSEOS0_.exit24.thread, %_ZNSt15__exception_ptr13exception_ptraSEOS0_.exit24, %42
  call void @_ZNSt13runtime_errorD1Ev(ptr noundef nonnull align 8 dereferenceable(16) %7) #26
  call void @llvm.lifetime.end.p0(i64 8, ptr nonnull %6) #26
  br label %_ZN5faiss19IndexShardsTemplateINS_5IndexEE12remove_shardEPS1_.exit.sink.split

43:                                               ; preds = %36
  %44 = landingpad { ptr, i32 }
          cleanup
  call void @llvm.lifetime.end.p0(i64 8, ptr nonnull %6) #26
  invoke void @__cxa_end_catch()
          to label %47 unwind label %48

45:                                               ; preds = %18
  %46 = landingpad { ptr, i32 }
          cleanup
  call void @llvm.lifetime.end.p0(i64 8, ptr nonnull %10) #26
  invoke void @__cxa_end_catch()
          to label %47 unwind label %48

_ZN5faiss19IndexShardsTemplateINS_5IndexEE12remove_shardEPS1_.exit.sink.split: ; preds = %_ZNSt15__exception_ptr13exception_ptrD2Ev.exit, %_ZNSt15__exception_ptr13exception_ptrD2Ev.exit20, %_ZNSt15__exception_ptr13exception_ptrD2Ev.exit26
  %.0.ph = phi i32 [ -1, %_ZNSt15__exception_ptr13exception_ptrD2Ev.exit26 ], [ -4, %_ZNSt15__exception_ptr13exception_ptrD2Ev.exit20 ], [ -2, %_ZNSt15__exception_ptr13exception_ptrD2Ev.exit ]
  call void @__cxa_end_catch()
  br label %_ZN5faiss19IndexShardsTemplateINS_5IndexEE12remove_shardEPS1_.exit

_ZN5faiss19IndexShardsTemplateINS_5IndexEE12remove_shardEPS1_.exit: ; preds = %_ZN5faiss19IndexShardsTemplateINS_5IndexEE12remove_shardEPS1_.exit.sink.split, %2
  %.0 = phi i32 [ 0, %2 ], [ %.0.ph, %_ZN5faiss19IndexShardsTemplateINS_5IndexEE12remove_shardEPS1_.exit.sink.split ]
  ret i32 %.0

47:                                               ; preds = %45, %43
  %.pn = phi { ptr, i32 } [ %44, %43 ], [ %46, %45 ]
  resume { ptr, i32 } %.pn

48:                                               ; preds = %45, %43
  %49 = landingpad { ptr, i32 }
          catch ptr null
  %50 = extractvalue { ptr, i32 } %49, 0
  call void @__clang_call_terminate(ptr %50) #29
  unreachable
}